target datalayout = "e-m:e-p270:32:32-p271:32:32-p272:64:64-i64:64-i128:128-f80:128-n8:16:32:64-S128"
target triple = "x86_64-pc-linux-gnu"

%struct._address = type { i32, i32, ptr, ptr }
%struct._packet_info = type { ptr, ptr, i32, i32, %struct.nstime_t, %struct.nstime_t, %struct.nstime_t, i8, ptr, ptr, ptr, ptr, %struct._address, %struct._address, %struct._address, %struct._address, %struct._address, %struct._address, i32, ptr, i8, [3 x i8], %struct.anon, i32, i32, i32, i32, ptr, i8, ptr, ptr, i16, i16, i32, i32, i16, i32, i32, ptr, ptr, ptr, i8, i8, i16, i16, i16, i32, i16, i16, ptr, ptr, ptr, ptr, ptr, i32, i32 }
%struct.nstime_t = type { i64, i32 }
%struct.anon = type { i8, [3 x i8] }
%struct._frame_data = type <{ i32, i32, i32, i32, i32, [4 x i8], i64, ptr, ptr, ptr, i8, i16, [5 x i8], %struct.nstime_t, %struct.nstime_t, i32, i32 }>
%struct.ftp_conversation_t = type { ptr, i32, ptr, ptr, i32, ptr, i32, i8 }
%struct.ftp_data_conversation_t = type { ptr, i32, ptr, i32, ptr, i32, %struct.nstime_t, i32, %struct.nstime_t, i32, i32 }

@proto_ftp_data = internal global i32 0, align 4
@ftpdata_handle = internal global ptr null, align 8

; Function Attrs: null_pointer_is_valid sspstrong uwtable
define internal void @create_and_link_data_conversation(ptr noundef %0, ptr noundef %1, i16 noundef zeroext %2, ptr noundef %3, i16 noundef zeroext %4, ptr noundef %5) #0 {
  %7 = alloca ptr, align 8
  %8 = alloca ptr, align 8
  %9 = alloca i16, align 2
  %10 = alloca ptr, align 8
  %11 = alloca i16, align 2
  %12 = alloca ptr, align 8
  %13 = alloca ptr, align 8
  %14 = alloca ptr, align 8
  %15 = alloca ptr, align 8
  store ptr %0, ptr %7, align 8
  store ptr %1, ptr %8, align 8
  store i16 %2, ptr %9, align 2
  store ptr %3, ptr %10, align 8
  store i16 %4, ptr %11, align 2
  store ptr %5, ptr %12, align 8
  %16 = load ptr, ptr %7, align 8
  %17 = getelementptr inbounds nuw %struct._packet_info, ptr %16, i32 0, i32 8
  %18 = load ptr, ptr %17, align 8
  %19 = getelementptr inbounds nuw %struct._frame_data, ptr %18, i32 0, i32 11
  %20 = load i16, ptr %19, align 1
  %21 = lshr i16 %20, 3
  %22 = and i16 %21, 1
  %23 = zext i16 %22 to i32
  %24 = icmp ne i32 %23, 0
  br i1 %24, label %25, label %26

25:                                               ; preds = %6
  br label %62

26:                                               ; preds = %6
  call void @llvm.lifetime.start.p0(i64 8, ptr %13) #16
  %27 = load ptr, ptr %7, align 8
  %28 = call ptr @find_or_create_ftp_conversation(ptr noundef %27)
  store ptr %28, ptr %13, align 8
  call void @llvm.lifetime.start.p0(i64 8, ptr %14) #16
  call void @llvm.lifetime.start.p0(i64 8, ptr %15) #16
  %29 = load ptr, ptr %7, align 8
  %30 = getelementptr inbounds nuw %struct._packet_info, ptr %29, i32 0, i32 3
  %31 = load i32, ptr %30, align 4
  %32 = load ptr, ptr %8, align 8
  %33 = load ptr, ptr %10, align 8
  %34 = load i16, ptr %9, align 2
  %35 = zext i16 %34 to i32
  %36 = load i16, ptr %11, align 2
  %37 = zext i16 %36 to i32
  %38 = call ptr @conversation_new(i32 noundef %31, ptr noundef %32, ptr noundef %33, i32 noundef 2, i32 noundef %35, i32 noundef %37, i32 noundef 2)
  store ptr %38, ptr %15, align 8
  %39 = load ptr, ptr %15, align 8
  %40 = load ptr, ptr @ftpdata_handle, align 8
  call void @conversation_set_dissector(ptr noundef %39, ptr noundef %40)
  %41 = call ptr @wmem_file_scope()
  %42 = call noalias ptr @wmem_alloc0(ptr noundef %41, i64 noundef 96) #17
  store ptr %42, ptr %14, align 8
  %43 = load ptr, ptr %12, align 8
  %44 = load ptr, ptr %14, align 8
  %45 = getelementptr inbounds nuw %struct.ftp_data_conversation_t, ptr %44, i32 0, i32 2
  store ptr %43, ptr %45, align 8
  %46 = load ptr, ptr %13, align 8
  %47 = getelementptr inbounds nuw %struct.ftp_conversation_t, ptr %46, i32 0, i32 2
  %48 = load ptr, ptr %47, align 8
  %49 = load ptr, ptr %14, align 8
  %50 = getelementptr inbounds nuw %struct.ftp_data_conversation_t, ptr %49, i32 0, i32 4
  store ptr %48, ptr %50, align 8
  %51 = load ptr, ptr %15, align 8
  %52 = load i32, ptr @proto_ftp_data, align 4
  %53 = load ptr, ptr %14, align 8
  call void @conversation_add_proto_data(ptr noundef %51, i32 noundef %52, ptr noundef %53)
  %54 = load ptr, ptr %14, align 8
  %55 = load ptr, ptr %13, align 8
  %56 = getelementptr inbounds nuw %struct.ftp_conversation_t, ptr %55, i32 0, i32 3
  store ptr %54, ptr %56, align 8
  %57 = load ptr, ptr %7, align 8
  %58 = getelementptr inbounds nuw %struct._packet_info, ptr %57, i32 0, i32 3
  %59 = load i32, ptr %58, align 4
  %60 = load ptr, ptr %13, align 8
  %61 = getelementptr inbounds nuw %struct.ftp_conversation_t, ptr %60, i32 0, i32 4
  store i32 %59, ptr %61, align 8
  call void @llvm.lifetime.end.p0(i64 8, ptr %15) #16
  call void @llvm.lifetime.end.p0(i64 8, ptr %14) #16
  call void @llvm.lifetime.end.p0(i64 8, ptr %13) #16
  br label %62

62:                                               ; preds = %26, %25
  ret void
}