; Function Attrs: null_pointer_is_valid sspstrong uwtable
define internal fastcc void @create_and_link_data_conversation(ptr noundef %0, ptr noundef %1, i16 noundef zeroext %2, ptr noundef %3, i16 noundef zeroext %4, ptr noundef %5) unnamed_addr #0 {
  %7 = getelementptr inbounds nuw i8, ptr %0, i64 80
  %8 = load ptr, ptr %7, align 8
  %9 = getelementptr inbounds nuw i8, ptr %8, i64 57
  %10 = load i16, ptr %9, align 1
  %11 = and i16 %10, 8
  %.not = icmp eq i16 %11, 0
  br i1 %.not, label %12, label %30

12:                                               ; preds = %6
  %13 = tail call fastcc ptr @find_or_create_ftp_conversation(ptr noundef %0)
  %14 = getelementptr inbounds nuw i8, ptr %0, i64 20
  %15 = load i32, ptr %14, align 4
  %16 = zext i16 %2 to i32
  %17 = zext i16 %4 to i32
  %18 = tail call ptr @conversation_new(i32 noundef %15, ptr noundef %1, ptr noundef %3, i32 noundef 2, i32 noundef %16, i32 noundef %17, i32 noundef 2)
  %19 = load ptr, ptr @ftpdata_handle, align 8
  tail call void @conversation_set_dissector(ptr noundef %18, ptr noundef %19)
  %20 = tail call ptr @wmem_file_scope()
  %21 = tail call noalias dereferenceable_or_null(96) ptr @wmem_alloc0(ptr noundef %20, i64 noundef 96) #13
  %22 = getelementptr inbounds nuw i8, ptr %21, i64 16
  store ptr %5, ptr %22, align 8
  %23 = getelementptr inbounds nuw i8, ptr %13, i64 16
  %24 = load ptr, ptr %23, align 8
  %25 = getelementptr inbounds nuw i8, ptr %21, i64 32
  store ptr %24, ptr %25, align 8
  %26 = load i32, ptr @proto_ftp_data, align 4
  tail call void @conversation_add_proto_data(ptr noundef %18, i32 noundef %26, ptr noundef %21)
  %27 = getelementptr inbounds nuw i8, ptr %13, i64 24
  store ptr %21, ptr %27, align 8
  %28 = load i32, ptr %14, align 4
  %29 = getelementptr inbounds nuw i8, ptr %13, i64 32
  store i32 %28, ptr %29, align 8
  br label %30

30:                                               ; preds = %6, %12
  ret void
}